target datalayout = "e-m:e-p270:32:32-p271:32:32-p272:64:64-i64:64-i128:128-f80:128-n8:16:32:64-S128"
target triple = "x86_64-pc-linux-gnu"

%struct.UnsharpFilterParam = type { i32, i32, i32, i32, i32, i32, i32, ptr, ptr }

@.str.43 = private unnamed_addr constant [65 x i8] c"%s matrix size (%sx/2+%sy/2)*2=%d greater than maximum value %d\0A\00", align 1

; Function Attrs: nounwind uwtable
define internal i32 @set_filter_param(ptr noundef %0, ptr noundef %1, ptr noundef %2, ptr noundef %3, i32 noundef %4, i32 noundef %5, float noundef %6) #1 {
  %8 = alloca i32, align 4
  %9 = alloca ptr, align 8
  %10 = alloca ptr, align 8
  %11 = alloca ptr, align 8
  %12 = alloca ptr, align 8
  %13 = alloca i32, align 4
  %14 = alloca i32, align 4
  %15 = alloca float, align 4
  store ptr %0, ptr %9, align 8, !tbaa !4
  store ptr %1, ptr %10, align 8, !tbaa !77
  store ptr %2, ptr %11, align 8, !tbaa !77
  store ptr %3, ptr %12, align 8, !tbaa !73
  store i32 %4, ptr %13, align 4, !tbaa !32
  store i32 %5, ptr %14, align 4, !tbaa !32
  store float %6, ptr %15, align 4, !tbaa !116
  %16 = load i32, ptr %13, align 4, !tbaa !32
  %17 = load ptr, ptr %12, align 8, !tbaa !73
  %18 = getelementptr inbounds nuw %struct.UnsharpFilterParam, ptr %17, i32 0, i32 0
  store i32 %16, ptr %18, align 8, !tbaa !113
  %19 = load i32, ptr %14, align 4, !tbaa !32
  %20 = load ptr, ptr %12, align 8, !tbaa !73
  %21 = getelementptr inbounds nuw %struct.UnsharpFilterParam, ptr %20, i32 0, i32 1
  store i32 %19, ptr %21, align 4, !tbaa !114
  %22 = load float, ptr %15, align 4, !tbaa !116
  %23 = fpext nsz float %22 to double
  %24 = fmul nsz double %23, 6.553600e+04
  %25 = fptosi double %24 to i32
  %26 = load ptr, ptr %12, align 8, !tbaa !73
  %27 = getelementptr inbounds nuw %struct.UnsharpFilterParam, ptr %26, i32 0, i32 2
  store i32 %25, ptr %27, align 8, !tbaa !95
  %28 = load i32, ptr %13, align 4, !tbaa !32
  %29 = sdiv i32 %28, 2
  %30 = load ptr, ptr %12, align 8, !tbaa !73
  %31 = getelementptr inbounds nuw %struct.UnsharpFilterParam, ptr %30, i32 0, i32 3
  store i32 %29, ptr %31, align 4, !tbaa !96
  %32 = load i32, ptr %14, align 4, !tbaa !32
  %33 = sdiv i32 %32, 2
  %34 = load ptr, ptr %12, align 8, !tbaa !73
  %35 = getelementptr inbounds nuw %struct.UnsharpFilterParam, ptr %34, i32 0, i32 4
  store i32 %33, ptr %35, align 8, !tbaa !97
  %36 = load ptr, ptr %12, align 8, !tbaa !73
  %37 = getelementptr inbounds nuw %struct.UnsharpFilterParam, ptr %36, i32 0, i32 3
  %38 = load i32, ptr %37, align 4, !tbaa !96
  %39 = load ptr, ptr %12, align 8, !tbaa !73
  %40 = getelementptr inbounds nuw %struct.UnsharpFilterParam, ptr %39, i32 0, i32 4
  %41 = load i32, ptr %40, align 8, !tbaa !97
  %42 = add nsw i32 %38, %41
  %43 = mul nsw i32 %42, 2
  %44 = load ptr, ptr %12, align 8, !tbaa !73
  %45 = getelementptr inbounds nuw %struct.UnsharpFilterParam, ptr %44, i32 0, i32 5
  store i32 %43, ptr %45, align 4, !tbaa !98
  %46 = load ptr, ptr %12, align 8, !tbaa !73
  %47 = getelementptr inbounds nuw %struct.UnsharpFilterParam, ptr %46, i32 0, i32 5
  %48 = load i32, ptr %47, align 4, !tbaa !98
  %49 = sub nsw i32 %48, 1
  %50 = shl i32 1, %49
  %51 = load ptr, ptr %12, align 8, !tbaa !73
  %52 = getelementptr inbounds nuw %struct.UnsharpFilterParam, ptr %51, i32 0, i32 6
  store i32 %50, ptr %52, align 8, !tbaa !99
  %53 = load ptr, ptr %12, align 8, !tbaa !73
  %54 = getelementptr inbounds nuw %struct.UnsharpFilterParam, ptr %53, i32 0, i32 5
  %55 = load i32, ptr %54, align 4, !tbaa !98
  %56 = icmp sgt i32 %55, 25
  br i1 %56, label %57, label %65

57:                                               ; preds = %7
  %58 = load ptr, ptr %9, align 8, !tbaa !4
  %59 = load ptr, ptr %10, align 8, !tbaa !77
  %60 = load ptr, ptr %11, align 8, !tbaa !77
  %61 = load ptr, ptr %11, align 8, !tbaa !77
  %62 = load ptr, ptr %12, align 8, !tbaa !73
  %63 = getelementptr inbounds nuw %struct.UnsharpFilterParam, ptr %62, i32 0, i32 5
  %64 = load i32, ptr %63, align 4, !tbaa !98
  call void (ptr, i32, ptr, ...) @av_log(ptr noundef %58, i32 noundef 16, ptr noundef @.str.43, ptr noundef %59, ptr noundef %60, ptr noundef %61, i32 noundef %64, i32 noundef 25)
  store i32 -22, ptr %8, align 4
  br label %66

65:                                               ; preds = %7
  store i32 0, ptr %8, align 4
  br label %66

66:                                               ; preds = %65, %57
  %67 = load i32, ptr %8, align 4
  ret i32 %67
}