; Function Attrs: nounwind uwtable
define internal fastcc range(i32 -22, 1) i32 @set_filter_param(ptr noundef %0, ptr noundef %1, ptr noundef %2, ptr noundef writeonly captures(none) initializes((0, 28)) %3, i32 noundef %4, i32 noundef %5, float noundef %6) unnamed_addr #1 {
  store i32 %4, ptr %3, align 8, !tbaa !102
  %8 = getelementptr inbounds nuw i8, ptr %3, i64 4
  store i32 %5, ptr %8, align 4, !tbaa !103
  %9 = fpext nsz float %6 to double
  %10 = fmul nsz double %9, 6.553600e+04
  %11 = fptosi double %10 to i32
  %12 = getelementptr inbounds nuw i8, ptr %3, i64 8
  store i32 %11, ptr %12, align 8, !tbaa !83
  %13 = sdiv i32 %4, 2
  %14 = getelementptr inbounds nuw i8, ptr %3, i64 12
  store i32 %13, ptr %14, align 4, !tbaa !84
  %15 = sdiv i32 %5, 2
  %16 = getelementptr inbounds nuw i8, ptr %3, i64 16
  store i32 %15, ptr %16, align 8, !tbaa !85
  %17 = add nsw i32 %15, %13
  %18 = shl nsw i32 %17, 1
  %19 = getelementptr inbounds nuw i8, ptr %3, i64 20
  store i32 %18, ptr %19, align 4, !tbaa !86
  %20 = add nsw i32 %18, -1
  %21 = shl nuw i32 1, %20
  %22 = getelementptr inbounds nuw i8, ptr %3, i64 24
  store i32 %21, ptr %22, align 8, !tbaa !87
  %23 = icmp sgt i32 %17, 12
  br i1 %23, label %24, label %25

24:                                               ; preds = %7
  tail call void (ptr, i32, ptr, ...) @av_log(ptr noundef %0, i32 noundef 16, ptr noundef nonnull @.str.43, ptr noundef %1, ptr noundef %2, ptr noundef %2, i32 noundef %18, i32 noundef 25) #7
  br label %25

25:                                               ; preds = %7, %24
  %.0 = phi i32 [ -22, %24 ], [ 0, %7 ]
  ret i32 %.0
}